; Function Attrs: mustprogress nounwind uwtable
define void @_ZN10aiMaterial5ClearEv(ptr noundef nonnull align 8 captures(none) dereferenceable(16) %0) local_unnamed_addr #9 align 2 {
  %2 = getelementptr inbounds nuw i8, ptr %0, i64 8
  %3 = load i32, ptr %2, align 8
  %.not = icmp eq i32 %3, 0
  br i1 %.not, label %._crit_edge, label %.lr.ph

._crit_edge:                                      ; preds = %14, %1
  store i32 0, ptr %2, align 8
  ret void

.lr.ph:                                           ; preds = %1, %14
  %4 = phi i32 [ %15, %14 ], [ %3, %1 ]
  %indvars.iv = phi i64 [ %indvars.iv.next, %14 ], [ 0, %1 ]
  %5 = load ptr, ptr %0, align 8
  %6 = getelementptr inbounds nuw ptr, ptr %5, i64 %indvars.iv
  %7 = load ptr, ptr %6, align 8
  %8 = icmp eq ptr %7, null
  br i1 %8, label %14, label %9

9:                                                ; preds = %.lr.ph
  %10 = getelementptr inbounds nuw i8, ptr %7, i64 1048
  %11 = load ptr, ptr %10, align 8
  %12 = icmp eq ptr %11, null
  br i1 %12, label %_ZN18aiMaterialPropertyD2Ev.exit, label %13

13:                                               ; preds = %9
  tail call void @_ZdaPv(ptr noundef nonnull %11) #26
  br label %_ZN18aiMaterialPropertyD2Ev.exit

_ZN18aiMaterialPropertyD2Ev.exit:                 ; preds = %9, %13
  tail call void @_ZdlPvm(ptr noundef nonnull %7, i64 noundef 1056) #26
  %.pre = load i32, ptr %2, align 8
  br label %14

14:                                               ; preds = %.lr.ph, %_ZN18aiMaterialPropertyD2Ev.exit
  %15 = phi i32 [ %4, %.lr.ph ], [ %.pre, %_ZN18aiMaterialPropertyD2Ev.exit ]
  %indvars.iv.next = add nuw nsw i64 %indvars.iv, 1
  %16 = zext i32 %15 to i64
  %17 = icmp samesign ult i64 %indvars.iv.next, %16
  br i1 %17, label %.lr.ph, label %._crit_edge, !llvm.loop !18
}